target datalayout = "e-m:e-p270:32:32-p271:32:32-p272:64:64-i64:64-i128:128-f80:128-n8:16:32:64-S128"
target triple = "x86_64-pc-linux-gnu"

%struct.ggml_tensor = type { i32, ptr, [4 x i64], [4 x i64], i32, [16 x i32], i32, [10 x ptr], ptr, i64, ptr, [64 x i8], ptr, [8 x i8] }

@.str.23 = private unnamed_addr constant [10 x i8] c"%s (view)\00", align 1

; Function Attrs: nounwind uwtable
define ptr @ggml_new_tensor(ptr noundef %0, i32 noundef %1, i32 noundef %2, ptr noundef %3) #5 {
  %5 = alloca ptr, align 8
  %6 = alloca i32, align 4
  %7 = alloca i32, align 4
  %8 = alloca ptr, align 8
  store ptr %0, ptr %5, align 8, !tbaa !48
  store i32 %1, ptr %6, align 4, !tbaa !8
  store i32 %2, ptr %7, align 4, !tbaa !8
  store ptr %3, ptr %8, align 8, !tbaa !88
  %9 = load ptr, ptr %5, align 8, !tbaa !48
  %10 = load i32, ptr %6, align 4, !tbaa !8
  %11 = load i32, ptr %7, align 4, !tbaa !8
  %12 = load ptr, ptr %8, align 8, !tbaa !88
  %13 = call ptr @ggml_new_tensor_impl(ptr noundef %9, i32 noundef %10, i32 noundef %11, ptr noundef %12, ptr noundef null, i64 noundef 0)
  ret ptr %13
}

; Function Attrs: nounwind uwtable
define internal void @ggml_set_op_params_f32(ptr noundef %0, i32 noundef %1, float noundef %2) #5 {
  %4 = alloca ptr, align 8
  %5 = alloca i32, align 4
  %6 = alloca float, align 4
  store ptr %0, ptr %4, align 8, !tbaa !54
  store i32 %1, ptr %5, align 4, !tbaa !8
  store float %2, ptr %6, align 4, !tbaa !23
  %7 = load float, ptr %6, align 4, !tbaa !23
  %8 = load ptr, ptr %4, align 8, !tbaa !54
  %9 = getelementptr inbounds nuw %struct.ggml_tensor, ptr %8, i32 0, i32 5
  %10 = getelementptr inbounds [16 x i32], ptr %9, i64 0, i64 0
  %11 = load i32, ptr %5, align 4, !tbaa !8
  %12 = zext i32 %11 to i64
  %13 = getelementptr inbounds nuw float, ptr %10, i64 %12
  store float %7, ptr %13, align 4, !tbaa !23
  ret void
}

; Function Attrs: nounwind uwtable
define internal void @ggml_set_op_params_i32(ptr noundef %0, i32 noundef %1, i32 noundef %2) #5 {
  %4 = alloca ptr, align 8
  %5 = alloca i32, align 4
  %6 = alloca i32, align 4
  store ptr %0, ptr %4, align 8, !tbaa !54
  store i32 %1, ptr %5, align 4, !tbaa !8
  store i32 %2, ptr %6, align 4, !tbaa !8
  %7 = load i32, ptr %6, align 4, !tbaa !8
  %8 = load ptr, ptr %4, align 8, !tbaa !54
  %9 = getelementptr inbounds nuw %struct.ggml_tensor, ptr %8, i32 0, i32 5
  %10 = getelementptr inbounds [16 x i32], ptr %9, i64 0, i64 0
  %11 = load i32, ptr %5, align 4, !tbaa !8
  %12 = zext i32 %11 to i64
  %13 = getelementptr inbounds nuw i32, ptr %10, i64 %12
  store i32 %7, ptr %13, align 4, !tbaa !8
  ret void
}

; Function Attrs: nounwind uwtable
define ptr @ggml_dup_tensor(ptr noundef %0, ptr noundef %1) #5 {
  %3 = alloca ptr, align 8
  %4 = alloca ptr, align 8
  store ptr %0, ptr %3, align 8, !tbaa !48
  store ptr %1, ptr %4, align 8, !tbaa !54
  %5 = load ptr, ptr %3, align 8, !tbaa !48
  %6 = load ptr, ptr %4, align 8, !tbaa !54
  %7 = getelementptr inbounds nuw %struct.ggml_tensor, ptr %6, i32 0, i32 0
  %8 = load i32, ptr %7, align 8, !tbaa !56
  %9 = load ptr, ptr %4, align 8, !tbaa !54
  %10 = getelementptr inbounds nuw %struct.ggml_tensor, ptr %9, i32 0, i32 2
  %11 = getelementptr inbounds [4 x i64], ptr %10, i64 0, i64 0
  %12 = call ptr @ggml_new_tensor(ptr noundef %5, i32 noundef %8, i32 noundef 4, ptr noundef %11)
  ret ptr %12
}

; Function Attrs: nounwind uwtable
define ptr @ggml_view_tensor(ptr noundef %0, ptr noundef %1) #5 {
  %3 = alloca ptr, align 8
  %4 = alloca ptr, align 8
  %5 = alloca ptr, align 8
  %6 = alloca i32, align 4
  store ptr %0, ptr %3, align 8, !tbaa !48
  store ptr %1, ptr %4, align 8, !tbaa !54
  call void @llvm.lifetime.start.p0(i64 8, ptr %5) #14
  %7 = load ptr, ptr %3, align 8, !tbaa !48
  %8 = load ptr, ptr %4, align 8, !tbaa !54
  %9 = getelementptr inbounds nuw %struct.ggml_tensor, ptr %8, i32 0, i32 0
  %10 = load i32, ptr %9, align 8, !tbaa !56
  %11 = load ptr, ptr %4, align 8, !tbaa !54
  %12 = getelementptr inbounds nuw %struct.ggml_tensor, ptr %11, i32 0, i32 2
  %13 = getelementptr inbounds [4 x i64], ptr %12, i64 0, i64 0
  %14 = load ptr, ptr %4, align 8, !tbaa !54
  %15 = call ptr @ggml_new_tensor_impl(ptr noundef %7, i32 noundef %10, i32 noundef 4, ptr noundef %13, ptr noundef %14, i64 noundef 0)
  store ptr %15, ptr %5, align 8, !tbaa !54
  %16 = load ptr, ptr %5, align 8, !tbaa !54
  %17 = load ptr, ptr %4, align 8, !tbaa !54
  %18 = getelementptr inbounds nuw %struct.ggml_tensor, ptr %17, i32 0, i32 11
  %19 = getelementptr inbounds [64 x i8], ptr %18, i64 0, i64 0
  %20 = call ptr (ptr, ptr, ...) @ggml_format_name(ptr noundef %16, ptr noundef @.str.23, ptr noundef %19)
  call void @llvm.lifetime.start.p0(i64 4, ptr %6) #14
  store i32 0, ptr %6, align 4, !tbaa !8
  br label %21

21:                                               ; preds = %37, %2
  %22 = load i32, ptr %6, align 4, !tbaa !8
  %23 = icmp slt i32 %22, 4
  br i1 %23, label %25, label %24

24:                                               ; preds = %21
  call void @llvm.lifetime.end.p0(i64 4, ptr %6) #14
  br label %40

25:                                               ; preds = %21
  %26 = load ptr, ptr %4, align 8, !tbaa !54
  %27 = getelementptr inbounds nuw %struct.ggml_tensor, ptr %26, i32 0, i32 3
  %28 = load i32, ptr %6, align 4, !tbaa !8
  %29 = sext i32 %28 to i64
  %30 = getelementptr inbounds [4 x i64], ptr %27, i64 0, i64 %29
  %31 = load i64, ptr %30, align 8, !tbaa !19
  %32 = load ptr, ptr %5, align 8, !tbaa !54
  %33 = getelementptr inbounds nuw %struct.ggml_tensor, ptr %32, i32 0, i32 3
  %34 = load i32, ptr %6, align 4, !tbaa !8
  %35 = sext i32 %34 to i64
  %36 = getelementptr inbounds [4 x i64], ptr %33, i64 0, i64 %35
  store i64 %31, ptr %36, align 8, !tbaa !19
  br label %37

37:                                               ; preds = %25
  %38 = load i32, ptr %6, align 4, !tbaa !8
  %39 = add nsw i32 %38, 1
  store i32 %39, ptr %6, align 4, !tbaa !8
  br label %21, !llvm.loop !101

40:                                               ; preds = %24
  %41 = load ptr, ptr %5, align 8, !tbaa !54
  call void @llvm.lifetime.end.p0(i64 8, ptr %5) #14
  ret ptr %41
}

; Function Attrs: nounwind uwtable
define internal ptr @ggml_group_norm_impl(ptr noundef %0, ptr noundef %1, i32 noundef %2, float noundef %3, i1 noundef zeroext %4) #5 {
  %6 = alloca ptr, align 8
  %7 = alloca ptr, align 8
  %8 = alloca i32, align 4
  %9 = alloca float, align 4
  %10 = alloca i8, align 1
  %11 = alloca ptr, align 8
  store ptr %0, ptr %6, align 8, !tbaa !48
  store ptr %1, ptr %7, align 8, !tbaa !54
  store i32 %2, ptr %8, align 4, !tbaa !8
  store float %3, ptr %9, align 4, !tbaa !23
  %12 = zext i1 %4 to i8
  store i8 %12, ptr %10, align 1, !tbaa !72
  call void @llvm.lifetime.start.p0(i64 8, ptr %11) #14
  %13 = load i8, ptr %10, align 1, !tbaa !72, !range !66, !noundef !67
  %14 = trunc i8 %13 to i1
  br i1 %14, label %15, label %19

15:                                               ; preds = %5
  %16 = load ptr, ptr %6, align 8, !tbaa !48
  %17 = load ptr, ptr %7, align 8, !tbaa !54
  %18 = call ptr @ggml_view_tensor(ptr noundef %16, ptr noundef %17)
  br label %23

19:                                               ; preds = %5
  %20 = load ptr, ptr %6, align 8, !tbaa !48
  %21 = load ptr, ptr %7, align 8, !tbaa !54
  %22 = call ptr @ggml_dup_tensor(ptr noundef %20, ptr noundef %21)
  br label %23

23:                                               ; preds = %19, %15
  %24 = phi ptr [ %18, %15 ], [ %22, %19 ]
  store ptr %24, ptr %11, align 8, !tbaa !54
  %25 = load ptr, ptr %11, align 8, !tbaa !54
  %26 = load i32, ptr %8, align 4, !tbaa !8
  call void @ggml_set_op_params_i32(ptr noundef %25, i32 noundef 0, i32 noundef %26)
  %27 = load ptr, ptr %11, align 8, !tbaa !54
  %28 = load float, ptr %9, align 4, !tbaa !23
  call void @ggml_set_op_params_f32(ptr noundef %27, i32 noundef 1, float noundef %28)
  %29 = load ptr, ptr %11, align 8, !tbaa !54
  %30 = getelementptr inbounds nuw %struct.ggml_tensor, ptr %29, i32 0, i32 4
  store i32 25, ptr %30, align 8, !tbaa !68
  %31 = load ptr, ptr %7, align 8, !tbaa !54
  %32 = load ptr, ptr %11, align 8, !tbaa !54
  %33 = getelementptr inbounds nuw %struct.ggml_tensor, ptr %32, i32 0, i32 7
  %34 = getelementptr inbounds [10 x ptr], ptr %33, i64 0, i64 0
  store ptr %31, ptr %34, align 8, !tbaa !54
  %35 = load ptr, ptr %11, align 8, !tbaa !54
  call void @llvm.lifetime.end.p0(i64 8, ptr %11) #14
  ret ptr %35
}

; Function Attrs: nounwind uwtable
define ptr @ggml_group_norm_inplace(ptr noundef %0, ptr noundef %1, i32 noundef %2, float noundef %3) #5 {
  %5 = alloca ptr, align 8
  %6 = alloca ptr, align 8
  %7 = alloca i32, align 4
  %8 = alloca float, align 4
  store ptr %0, ptr %5, align 8, !tbaa !48
  store ptr %1, ptr %6, align 8, !tbaa !54
  store i32 %2, ptr %7, align 4, !tbaa !8
  store float %3, ptr %8, align 4, !tbaa !23
  %9 = load ptr, ptr %5, align 8, !tbaa !48
  %10 = load ptr, ptr %6, align 8, !tbaa !54
  %11 = load i32, ptr %7, align 4, !tbaa !8
  %12 = load float, ptr %8, align 4, !tbaa !23
  %13 = call ptr @ggml_group_norm_impl(ptr noundef %9, ptr noundef %10, i32 noundef %11, float noundef %12, i1 noundef zeroext true)
  ret ptr %13
}